target datalayout = "e-m:e-p270:32:32-p271:32:32-p272:64:64-i64:64-i128:128-f80:128-n8:16:32:64-S128"
target triple = "x86_64-pc-linux-gnu"

%union.ListCell = type { ptr }
%struct.nameData = type { [64 x i8] }
%struct.HeapTupleData = type { i32, %struct.ItemPointerData, i32, ptr }
%struct.ItemPointerData = type { %struct.BlockIdData, i16 }
%struct.BlockIdData = type { i16, i16 }
%struct.HeapTupleHeaderData = type { %union.anon, %struct.ItemPointerData, i16, i16, i8, [0 x i8] }
%union.anon = type { %struct.HeapTupleFields }
%struct.HeapTupleFields = type { i32, i32, %union.anon.0 }
%union.anon.0 = type { i32 }
%struct.FormData_pg_operator = type { i32, %struct.nameData, i32, i32, i8, i8, i8, i32, i32, i32, i32, i32, i32, i32, i32 }

@.str.1 = private unnamed_addr constant [10 x i8] c"regproc.c\00", align 1
@.str.24 = private unnamed_addr constant [45 x i8] c"cache lookup failed for operator with OID %u\00", align 1
@__func__.format_operator_parts = private unnamed_addr constant [22 x i8] c"format_operator_parts\00", align 1

; Function Attrs: inlinehint nounwind uwtable
define internal ptr @GETSTRUCT(ptr noundef %0) #2 {
  %2 = alloca ptr, align 8
  store ptr %0, ptr %2, align 8
  %3 = load ptr, ptr %2, align 8
  %4 = getelementptr inbounds nuw %struct.HeapTupleData, ptr %3, i32 0, i32 3
  %5 = load ptr, ptr %4, align 8
  %6 = load ptr, ptr %2, align 8
  %7 = getelementptr inbounds nuw %struct.HeapTupleData, ptr %6, i32 0, i32 3
  %8 = load ptr, ptr %7, align 8
  %9 = getelementptr inbounds nuw %struct.HeapTupleHeaderData, ptr %8, i32 0, i32 4
  %10 = load i8, ptr %9, align 2
  %11 = zext i8 %10 to i32
  %12 = sext i32 %11 to i64
  %13 = getelementptr inbounds i8, ptr %5, i64 %12
  ret ptr %13
}

; Function Attrs: inlinehint nounwind uwtable
define internal i64 @ObjectIdGetDatum(i32 noundef %0) #2 {
  %2 = alloca i32, align 4
  store i32 %0, ptr %2, align 4
  %3 = load i32, ptr %2, align 4
  %4 = zext i32 %3 to i64
  ret i64 %4
}

; Function Attrs: nounwind uwtable
define dso_local void @format_operator_parts(i32 noundef %0, ptr noundef %1, ptr noundef %2, i1 noundef zeroext %3) #0 {
  %5 = alloca i32, align 4
  %6 = alloca ptr, align 8
  %7 = alloca ptr, align 8
  %8 = alloca i8, align 1
  %9 = alloca ptr, align 8
  %10 = alloca ptr, align 8
  %11 = alloca i32, align 4
  %12 = alloca %union.ListCell, align 8
  %13 = alloca %union.ListCell, align 8
  store i32 %0, ptr %5, align 4
  store ptr %1, ptr %6, align 8
  store ptr %2, ptr %7, align 8
  %14 = zext i1 %3 to i8
  store i8 %14, ptr %8, align 1
  call void @llvm.lifetime.start.p0(i64 8, ptr %9) #8
  call void @llvm.lifetime.start.p0(i64 8, ptr %10) #8
  %15 = load i32, ptr %5, align 4
  %16 = call i64 @ObjectIdGetDatum(i32 noundef %15)
  %17 = call ptr @SearchSysCache1(i32 noundef 40, i64 noundef %16)
  store ptr %17, ptr %9, align 8
  %18 = load ptr, ptr %9, align 8
  %19 = icmp ne ptr %18, null
  br i1 %19, label %36, label %20

20:                                               ; preds = %4
  %21 = load i8, ptr %8, align 1, !range !7, !noundef !8
  %22 = trunc i8 %21 to i1
  br i1 %22, label %35, label %23

23:                                               ; preds = %20
  br label %24

24:                                               ; preds = %23
  br i1 true, label %25, label %27

25:                                               ; preds = %24
  %26 = call zeroext i1 @errstart_cold(i32 noundef 21, ptr noundef null) #9
  br i1 %26, label %29, label %32

27:                                               ; preds = %24
  %28 = call zeroext i1 @errstart(i32 noundef 21, ptr noundef null)
  br i1 %28, label %29, label %32

29:                                               ; preds = %27, %25
  %30 = load i32, ptr %5, align 4
  %31 = call i32 (ptr, ...) @errmsg_internal(ptr noundef @.str.24, i32 noundef %30)
  call void @errfinish(ptr noundef @.str.1, i32 noundef 817, ptr noundef @__func__.format_operator_parts)
  br label %32

32:                                               ; preds = %29, %27, %25
  unreachable

33:                                               ; No predecessors!
  br label %34

34:                                               ; preds = %33
  br label %35

35:                                               ; preds = %34, %20
  store i32 1, ptr %11, align 4
  br label %84

36:                                               ; preds = %4
  %37 = load ptr, ptr %9, align 8
  %38 = call ptr @GETSTRUCT(ptr noundef %37)
  store ptr %38, ptr %10, align 8
  %39 = load ptr, ptr %10, align 8
  %40 = getelementptr inbounds nuw %struct.FormData_pg_operator, ptr %39, i32 0, i32 2
  %41 = load i32, ptr %40, align 4
  %42 = call ptr @get_namespace_name_or_temp(i32 noundef %41)
  store ptr %42, ptr %12, align 8
  %43 = load ptr, ptr %10, align 8
  %44 = getelementptr inbounds nuw %struct.FormData_pg_operator, ptr %43, i32 0, i32 1
  %45 = getelementptr inbounds nuw %struct.nameData, ptr %44, i32 0, i32 0
  %46 = getelementptr inbounds [64 x i8], ptr %45, i64 0, i64 0
  %47 = call ptr @pstrdup(ptr noundef %46)
  store ptr %47, ptr %13, align 8
  %48 = getelementptr inbounds nuw %union.ListCell, ptr %12, i32 0, i32 0
  %49 = load ptr, ptr %48, align 8
  %50 = getelementptr inbounds nuw %union.ListCell, ptr %13, i32 0, i32 0
  %51 = load ptr, ptr %50, align 8
  %52 = call ptr @list_make2_impl(i32 noundef 1, ptr %49, ptr %51)
  %53 = load ptr, ptr %6, align 8
  store ptr %52, ptr %53, align 8
  %54 = load ptr, ptr %7, align 8
  store ptr null, ptr %54, align 8
  %55 = load ptr, ptr %10, align 8
  %56 = getelementptr inbounds nuw %struct.FormData_pg_operator, ptr %55, i32 0, i32 7
  %57 = load i32, ptr %56, align 4
  %58 = icmp ne i32 %57, 0
  br i1 %58, label %59, label %68

59:                                               ; preds = %36
  %60 = load ptr, ptr %7, align 8
  %61 = load ptr, ptr %60, align 8
  %62 = load ptr, ptr %10, align 8
  %63 = getelementptr inbounds nuw %struct.FormData_pg_operator, ptr %62, i32 0, i32 7
  %64 = load i32, ptr %63, align 4
  %65 = call ptr @format_type_be_qualified(i32 noundef %64)
  %66 = call ptr @lappend(ptr noundef %61, ptr noundef %65)
  %67 = load ptr, ptr %7, align 8
  store ptr %66, ptr %67, align 8
  br label %68

68:                                               ; preds = %59, %36
  %69 = load ptr, ptr %10, align 8
  %70 = getelementptr inbounds nuw %struct.FormData_pg_operator, ptr %69, i32 0, i32 8
  %71 = load i32, ptr %70, align 4
  %72 = icmp ne i32 %71, 0
  br i1 %72, label %73, label %82

73:                                               ; preds = %68
  %74 = load ptr, ptr %7, align 8
  %75 = load ptr, ptr %74, align 8
  %76 = load ptr, ptr %10, align 8
  %77 = getelementptr inbounds nuw %struct.FormData_pg_operator, ptr %76, i32 0, i32 8
  %78 = load i32, ptr %77, align 4
  %79 = call ptr @format_type_be_qualified(i32 noundef %78)
  %80 = call ptr @lappend(ptr noundef %75, ptr noundef %79)
  %81 = load ptr, ptr %7, align 8
  store ptr %80, ptr %81, align 8
  br label %82

82:                                               ; preds = %73, %68
  %83 = load ptr, ptr %9, align 8
  call void @ReleaseSysCache(ptr noundef %83)
  store i32 0, ptr %11, align 4
  br label %84

84:                                               ; preds = %82, %35
  call void @llvm.lifetime.end.p0(i64 8, ptr %10) #8
  call void @llvm.lifetime.end.p0(i64 8, ptr %9) #8
  %85 = load i32, ptr %11, align 4
  switch i32 %85, label %87 [
    i32 0, label %86
    i32 1, label %86
  ]

86:                                               ; preds = %84, %84
  ret void

87:                                               ; preds = %84
  unreachable
}