; Function Attrs: nounwind uwtable
define dso_local void @format_operator_parts(i32 noundef %0, ptr noundef writeonly captures(none) %1, ptr noundef writeonly captures(none) %2, i1 noundef zeroext %3) local_unnamed_addr #0 {
  %5 = zext i32 %0 to i64
  %6 = tail call ptr @SearchSysCache1(i32 noundef 40, i64 noundef %5) #9
  %.not = icmp eq ptr %6, null
  br i1 %.not, label %7, label %11

7:                                                ; preds = %4
  br i1 %3, label %36, label %8

8:                                                ; preds = %7
  %9 = tail call zeroext i1 @errstart_cold(i32 noundef 21, ptr noundef null) #10
  tail call void @llvm.assume(i1 %9)
  %10 = tail call i32 (ptr, ...) @errmsg_internal(ptr noundef nonnull @.str.24, i32 noundef %0) #9
  tail call void @errfinish(ptr noundef nonnull @.str.1, i32 noundef 817, ptr noundef nonnull @__func__.format_operator_parts) #9
  unreachable

11:                                               ; preds = %4
  %12 = getelementptr i8, ptr %6, i64 16
  %.val = load ptr, ptr %12, align 8
  %13 = getelementptr inbounds nuw i8, ptr %.val, i64 22
  %14 = load i8, ptr %13, align 2
  %15 = zext i8 %14 to i64
  %16 = getelementptr inbounds nuw i8, ptr %.val, i64 %15
  %17 = getelementptr inbounds nuw i8, ptr %16, i64 68
  %18 = load i32, ptr %17, align 4
  %19 = tail call ptr @get_namespace_name_or_temp(i32 noundef %18) #9
  %20 = getelementptr inbounds nuw i8, ptr %16, i64 4
  %21 = tail call ptr @pstrdup(ptr noundef nonnull %20) #9
  %22 = tail call ptr @list_make2_impl(i32 noundef 1, ptr %19, ptr %21) #9
  store ptr %22, ptr %1, align 8
  store ptr null, ptr %2, align 8
  %23 = getelementptr inbounds nuw i8, ptr %16, i64 80
  %24 = load i32, ptr %23, align 4
  %.not20 = icmp eq i32 %24, 0
  br i1 %.not20, label %28, label %25

25:                                               ; preds = %11
  %26 = tail call ptr @format_type_be_qualified(i32 noundef %24) #9
  %27 = tail call ptr @lappend(ptr noundef null, ptr noundef %26) #9
  store ptr %27, ptr %2, align 8
  br label %28

28:                                               ; preds = %25, %11
  %29 = phi ptr [ %27, %25 ], [ null, %11 ]
  %30 = getelementptr inbounds nuw i8, ptr %16, i64 84
  %31 = load i32, ptr %30, align 4
  %.not21 = icmp eq i32 %31, 0
  br i1 %.not21, label %35, label %32

32:                                               ; preds = %28
  %33 = tail call ptr @format_type_be_qualified(i32 noundef %31) #9
  %34 = tail call ptr @lappend(ptr noundef %29, ptr noundef %33) #9
  store ptr %34, ptr %2, align 8
  br label %35

35:                                               ; preds = %32, %28
  tail call void @ReleaseSysCache(ptr noundef nonnull %6) #9
  br label %36

36:                                               ; preds = %7, %35
  ret void
}